#include <math.h>
#include <stdio.h>
#include <stdlib.h>
#include <string.h>
#include <iostream>
using namespace std;

int main()
{
	int year, mon, d;
	int month = 1, day = 1, lunar = 0, days = 1;
	cin >> year >> mon >> d;
	if (((year % 4 == 0) && (year % 100 != 0)) || (year % 400 == 0))
		lunar = 1;
	while ((mon != month) || (d != day))
	{
		day++;
		days++;
		if ((day==32)&&((month==1)||(month==3)||(month==5)||(month==7)||(month==8)||(month==10)||(month==12))) 
				{
					month++;
					day=1;
			    }
			if ((day==31)&&((month==4)||(month==6)||(month==9)||(month==11)))
			    {
					month++;
					day=1;
			    }
			if ((day==30)&&(month==2)&&(lunar==1))
			    {
					month++;
					day=1;
			    }
			if ((day==29)&&(month==2)&&(lunar==0))
			    {
					month++;
					day=1;
			    }
	}
	cout << days << endl;
	return 0;
}