; ModuleID = '11/1061.cpp'
source_filename = "11/1061.cpp"
target datalayout = "e-m:e-p270:32:32-p271:32:32-p272:64:64-i64:64-f80:128-n8:16:32:64-S128"
target triple = "x86_64-pc-linux-gnu"

%"class.std::ios_base::Init" = type { i8 }
%"class.std::basic_istream" = type { i32 (...)**, i64, %"class.std::basic_ios" }
%"class.std::basic_ios" = type { %"class.std::ios_base", %"class.std::basic_ostream"*, i8, i8, %"class.std::basic_streambuf"*, %"class.std::ctype"*, %"class.std::num_put"*, %"class.std::num_get"* }
%"class.std::ios_base" = type { i32 (...)**, i64, i64, i32, i32, i32, %"struct.std::ios_base::_Callback_list"*, %"struct.std::ios_base::_Words", [8 x %"struct.std::ios_base::_Words"], i32, %"struct.std::ios_base::_Words"*, %"class.std::locale" }
%"struct.std::ios_base::_Callback_list" = type { %"struct.std::ios_base::_Callback_list"*, void (i32, %"class.std::ios_base"*, i32)*, i32, i32 }
%"struct.std::ios_base::_Words" = type { i8*, i64 }
%"class.std::locale" = type { %"class.std::locale::_Impl"* }
%"class.std::locale::_Impl" = type { i32, %"class.std::locale::facet"**, i64, %"class.std::locale::facet"**, i8** }
%"class.std::locale::facet" = type <{ i32 (...)**, i32, [4 x i8] }>
%"class.std::basic_ostream" = type { i32 (...)**, %"class.std::basic_ios" }
%"class.std::basic_streambuf" = type { i32 (...)**, i8*, i8*, i8*, i8*, i8*, i8*, %"class.std::locale" }
%"class.std::ctype" = type <{ %"class.std::locale::facet.base", [4 x i8], %struct.__locale_struct*, i8, [7 x i8], i32*, i32*, i16*, i8, [256 x i8], [256 x i8], i8, [6 x i8] }>
%"class.std::locale::facet.base" = type <{ i32 (...)**, i32 }>
%struct.__locale_struct = type { [13 x %struct.__locale_data*], i16*, i32*, i32*, [13 x i8*] }
%struct.__locale_data = type opaque
%"class.std::num_put" = type { %"class.std::locale::facet.base", [4 x i8] }
%"class.std::num_get" = type { %"class.std::locale::facet.base", [4 x i8] }

@_ZStL8__ioinit = internal global %"class.std::ios_base::Init" zeroinitializer, align 1
@__dso_handle = external hidden global i8
@_ZSt3cin = external dso_local global %"class.std::basic_istream", align 8
@_ZSt4cout = external dso_local global %"class.std::basic_ostream", align 8
@llvm.global_ctors = appending global [1 x { i32, void ()*, i8* }] [{ i32, void ()*, i8* } { i32 65535, void ()* @_GLOBAL__sub_I_1061.cpp, i8* null }]

; Function Attrs: noinline uwtable
define internal void @__cxx_global_var_init() #0 section ".text.startup" {
  call void @_ZNSt8ios_base4InitC1Ev(%"class.std::ios_base::Init"* @_ZStL8__ioinit)
  %1 = call i32 @__cxa_atexit(void (i8*)* bitcast (void (%"class.std::ios_base::Init"*)* @_ZNSt8ios_base4InitD1Ev to void (i8*)*), i8* getelementptr inbounds (%"class.std::ios_base::Init", %"class.std::ios_base::Init"* @_ZStL8__ioinit, i32 0, i32 0), i8* @__dso_handle) #3
  ret void
}

declare dso_local void @_ZNSt8ios_base4InitC1Ev(%"class.std::ios_base::Init"*) unnamed_addr #1

; Function Attrs: nounwind
declare dso_local void @_ZNSt8ios_base4InitD1Ev(%"class.std::ios_base::Init"*) unnamed_addr #2

; Function Attrs: nounwind
declare dso_local i32 @__cxa_atexit(void (i8*)*, i8*, i8*) #3

; Function Attrs: noinline norecurse uwtable
define dso_local i32 @main() #4 {
  %1 = alloca i32, align 4
  %2 = alloca i32, align 4
  %3 = alloca i32, align 4
  %4 = alloca i32, align 4
  %5 = alloca i32, align 4
  %6 = alloca i32, align 4
  %7 = alloca i32, align 4
  %8 = alloca i32, align 4
  store i32 0, i32* %1, align 4
  store i32 1, i32* %5, align 4
  store i32 1, i32* %6, align 4
  store i32 0, i32* %7, align 4
  store i32 1, i32* %8, align 4
  %9 = call dereferenceable(280) %"class.std::basic_istream"* @_ZNSirsERi(%"class.std::basic_istream"* @_ZSt3cin, i32* dereferenceable(4) %2)
  %10 = call dereferenceable(280) %"class.std::basic_istream"* @_ZNSirsERi(%"class.std::basic_istream"* %9, i32* dereferenceable(4) %3)
  %11 = call dereferenceable(280) %"class.std::basic_istream"* @_ZNSirsERi(%"class.std::basic_istream"* %10, i32* dereferenceable(4) %4)
  %12 = load i32, i32* %2, align 4
  %13 = srem i32 %12, 4
  %14 = icmp eq i32 %13, 0
  br i1 %14, label %15, label %19

15:                                               ; preds = %0
  %16 = load i32, i32* %2, align 4
  %17 = srem i32 %16, 100
  %18 = icmp ne i32 %17, 0
  br i1 %18, label %23, label %19

19:                                               ; preds = %15, %0
  %20 = load i32, i32* %2, align 4
  %21 = srem i32 %20, 400
  %22 = icmp eq i32 %21, 0
  br i1 %22, label %23, label %24

23:                                               ; preds = %19, %15
  store i32 1, i32* %7, align 4
  br label %24

24:                                               ; preds = %23, %19
  br label %25

25:                                               ; preds = %108, %24
  %26 = load i32, i32* %3, align 4
  %27 = load i32, i32* %5, align 4
  %28 = icmp ne i32 %26, %27
  br i1 %28, label %33, label %29

29:                                               ; preds = %25
  %30 = load i32, i32* %4, align 4
  %31 = load i32, i32* %6, align 4
  %32 = icmp ne i32 %30, %31
  br label %33

33:                                               ; preds = %29, %25
  %34 = phi i1 [ true, %25 ], [ %32, %29 ]
  br i1 %34, label %35, label %109

35:                                               ; preds = %33
  %36 = load i32, i32* %6, align 4
  %37 = add nsw i32 %36, 1
  store i32 %37, i32* %6, align 4
  %38 = load i32, i32* %8, align 4
  %39 = add nsw i32 %38, 1
  store i32 %39, i32* %8, align 4
  %40 = load i32, i32* %6, align 4
  %41 = icmp eq i32 %40, 32
  br i1 %41, label %42, label %66

42:                                               ; preds = %35
  %43 = load i32, i32* %5, align 4
  %44 = icmp eq i32 %43, 1
  br i1 %44, label %63, label %45

45:                                               ; preds = %42
  %46 = load i32, i32* %5, align 4
  %47 = icmp eq i32 %46, 3
  br i1 %47, label %63, label %48

48:                                               ; preds = %45
  %49 = load i32, i32* %5, align 4
  %50 = icmp eq i32 %49, 5
  br i1 %50, label %63, label %51

51:                                               ; preds = %48
  %52 = load i32, i32* %5, align 4
  %53 = icmp eq i32 %52, 7
  br i1 %53, label %63, label %54

54:                                               ; preds = %51
  %55 = load i32, i32* %5, align 4
  %56 = icmp eq i32 %55, 8
  br i1 %56, label %63, label %57

57:                                               ; preds = %54
  %58 = load i32, i32* %5, align 4
  %59 = icmp eq i32 %58, 10
  br i1 %59, label %63, label %60

60:                                               ; preds = %57
  %61 = load i32, i32* %5, align 4
  %62 = icmp eq i32 %61, 12
  br i1 %62, label %63, label %66

63:                                               ; preds = %60, %57, %54, %51, %48, %45, %42
  %64 = load i32, i32* %5, align 4
  %65 = add nsw i32 %64, 1
  store i32 %65, i32* %5, align 4
  store i32 1, i32* %6, align 4
  br label %66

66:                                               ; preds = %63, %60, %35
  %67 = load i32, i32* %6, align 4
  %68 = icmp eq i32 %67, 31
  br i1 %68, label %69, label %84

69:                                               ; preds = %66
  %70 = load i32, i32* %5, align 4
  %71 = icmp eq i32 %70, 4
  br i1 %71, label %81, label %72

72:                                               ; preds = %69
  %73 = load i32, i32* %5, align 4
  %74 = icmp eq i32 %73, 6
  br i1 %74, label %81, label %75

75:                                               ; preds = %72
  %76 = load i32, i32* %5, align 4
  %77 = icmp eq i32 %76, 9
  br i1 %77, label %81, label %78

78:                                               ; preds = %75
  %79 = load i32, i32* %5, align 4
  %80 = icmp eq i32 %79, 11
  br i1 %80, label %81, label %84

81:                                               ; preds = %78, %75, %72, %69
  %82 = load i32, i32* %5, align 4
  %83 = add nsw i32 %82, 1
  store i32 %83, i32* %5, align 4
  store i32 1, i32* %6, align 4
  br label %84

84:                                               ; preds = %81, %78, %66
  %85 = load i32, i32* %6, align 4
  %86 = icmp eq i32 %85, 30
  br i1 %86, label %87, label %96

87:                                               ; preds = %84
  %88 = load i32, i32* %5, align 4
  %89 = icmp eq i32 %88, 2
  br i1 %89, label %90, label %96

90:                                               ; preds = %87
  %91 = load i32, i32* %7, align 4
  %92 = icmp eq i32 %91, 1
  br i1 %92, label %93, label %96

93:                                               ; preds = %90
  %94 = load i32, i32* %5, align 4
  %95 = add nsw i32 %94, 1
  store i32 %95, i32* %5, align 4
  store i32 1, i32* %6, align 4
  br label %96

96:                                               ; preds = %93, %90, %87, %84
  %97 = load i32, i32* %6, align 4
  %98 = icmp eq i32 %97, 29
  br i1 %98, label %99, label %108

99:                                               ; preds = %96
  %100 = load i32, i32* %5, align 4
  %101 = icmp eq i32 %100, 2
  br i1 %101, label %102, label %108

102:                                              ; preds = %99
  %103 = load i32, i32* %7, align 4
  %104 = icmp eq i32 %103, 0
  br i1 %104, label %105, label %108

105:                                              ; preds = %102
  %106 = load i32, i32* %5, align 4
  %107 = add nsw i32 %106, 1
  store i32 %107, i32* %5, align 4
  store i32 1, i32* %6, align 4
  br label %108

108:                                              ; preds = %105, %102, %99, %96
  br label %25

109:                                              ; preds = %33
  %110 = load i32, i32* %8, align 4
  %111 = call dereferenceable(272) %"class.std::basic_ostream"* @_ZNSolsEi(%"class.std::basic_ostream"* @_ZSt4cout, i32 %110)
  %112 = call dereferenceable(272) %"class.std::basic_ostream"* @_ZNSolsEPFRSoS_E(%"class.std::basic_ostream"* %111, %"class.std::basic_ostream"* (%"class.std::basic_ostream"*)* @_ZSt4endlIcSt11char_traitsIcEERSt13basic_ostreamIT_T0_ES6_)
  ret i32 0
}

declare dso_local dereferenceable(280) %"class.std::basic_istream"* @_ZNSirsERi(%"class.std::basic_istream"*, i32* dereferenceable(4)) #1

declare dso_local dereferenceable(272) %"class.std::basic_ostream"* @_ZNSolsEi(%"class.std::basic_ostream"*, i32) #1

declare dso_local dereferenceable(272) %"class.std::basic_ostream"* @_ZNSolsEPFRSoS_E(%"class.std::basic_ostream"*, %"class.std::basic_ostream"* (%"class.std::basic_ostream"*)*) #1

declare dso_local dereferenceable(272) %"class.std::basic_ostream"* @_ZSt4endlIcSt11char_traitsIcEERSt13basic_ostreamIT_T0_ES6_(%"class.std::basic_ostream"* dereferenceable(272)) #1

; Function Attrs: noinline uwtable
define internal void @_GLOBAL__sub_I_1061.cpp() #0 section ".text.startup" {
  call void @__cxx_global_var_init()
  ret void
}


!llvm.module.flags = !{!0}
!llvm.ident = !{!1}

!0 = !{i32 1, !"wchar_size", i32 4}
!1 = !{!"clang version 10.0.0-4ubuntu1 "}
