; ModuleID = 'source-C-CXX/10/1061.cpp'
source_filename = "source-C-CXX/10/1061.cpp"
target datalayout = "e-m:e-p270:32:32-p271:32:32-p272:64:64-i64:64-f80:128-n8:16:32:64-S128"
target triple = "x86_64-pc-linux-gnu"

%"class.std::ios_base::Init" = type { i8 }
%"class.std::basic_istream" = type { i32 (...)**, i64, %"class.std::basic_ios" }
%"class.std::basic_ios" = type { %"class.std::ios_base", %"class.std::basic_ostream"*, i8, i8, %"class.std::basic_streambuf"*, %"class.std::ctype"*, %"class.std::num_put"*, %"class.std::num_get"* }
%"class.std::ios_base" = type { i32 (...)**, i64, i64, i32, i32, i32, %"struct.std::ios_base::_Callback_list"*, %"struct.std::ios_base::_Words", [8 x %"struct.std::ios_base::_Words"], i32, %"struct.std::ios_base::_Words"*, %"class.std::locale" }
%"struct.std::ios_base::_Callback_list" = type { %"struct.std::ios_base::_Callback_list"*, void (i32, %"class.std::ios_base"*, i32)*, i32, i32 }
%"struct.std::ios_base::_Words" = type { i8*, i64 }
%"class.std::locale" = type { %"class.std::locale::_Impl"* }
%"class.std::locale::_Impl" = type { i32, %"class.std::locale::facet"**, i64, %"class.std::locale::facet"**, i8** }
%"class.std::locale::facet" = type <{ i32 (...)**, i32, [4 x i8] }>
%"class.std::basic_ostream" = type { i32 (...)**, %"class.std::basic_ios" }
%"class.std::basic_streambuf" = type { i32 (...)**, i8*, i8*, i8*, i8*, i8*, i8*, %"class.std::locale" }
%"class.std::ctype" = type <{ %"class.std::locale::facet.base", [4 x i8], %struct.__locale_struct*, i8, [7 x i8], i32*, i32*, i16*, i8, [256 x i8], [256 x i8], i8, [6 x i8] }>
%"class.std::locale::facet.base" = type <{ i32 (...)**, i32 }>
%struct.__locale_struct = type { [13 x %struct.__locale_data*], i16*, i32*, i32*, [13 x i8*] }
%struct.__locale_data = type opaque
%"class.std::num_put" = type { %"class.std::locale::facet.base", [4 x i8] }
%"class.std::num_get" = type { %"class.std::locale::facet.base", [4 x i8] }

@_ZStL8__ioinit = internal global %"class.std::ios_base::Init" zeroinitializer, align 1
@__dso_handle = external hidden global i8
@_ZSt3cin = external global %"class.std::basic_istream", align 8
@_ZSt4cout = external global %"class.std::basic_ostream", align 8
@llvm.global_ctors = appending global [1 x { i32, void ()*, i8* }] [{ i32, void ()*, i8* } { i32 65535, void ()* @_GLOBAL__sub_I_1061.cpp, i8* null }]
@switch.table.main = private unnamed_addr constant [12 x i32] [i32 2, i32 13, i32 4, i32 13, i32 6, i32 13, i32 8, i32 9, i32 13, i32 11, i32 13, i32 13], align 4
@switch.table.main.1 = private unnamed_addr constant [8 x i32] [i32 5, i32 12, i32 7, i32 12, i32 12, i32 10, i32 12, i32 12], align 4

declare void @_ZNSt8ios_base4InitC1Ev(%"class.std::ios_base::Init"* nonnull align 1 dereferenceable(1)) unnamed_addr #0

; Function Attrs: nounwind
declare void @_ZNSt8ios_base4InitD1Ev(%"class.std::ios_base::Init"* nonnull align 1 dereferenceable(1)) unnamed_addr #1

; Function Attrs: nofree nounwind
declare i32 @__cxa_atexit(void (i8*)*, i8*, i8*) local_unnamed_addr #2

; Function Attrs: mustprogress norecurse sspstrong uwtable
define dso_local i32 @main() local_unnamed_addr #3 {
  %1 = alloca i32, align 4
  %2 = alloca i32, align 4
  %3 = alloca i32, align 4
  %4 = bitcast i32* %1 to i8*
  call void @llvm.lifetime.start.p0i8(i64 4, i8* nonnull %4) #7
  %5 = bitcast i32* %2 to i8*
  call void @llvm.lifetime.start.p0i8(i64 4, i8* nonnull %5) #7
  %6 = bitcast i32* %3 to i8*
  call void @llvm.lifetime.start.p0i8(i64 4, i8* nonnull %6) #7
  %7 = call nonnull align 8 dereferenceable(16) %"class.std::basic_istream"* @_ZNSirsERi(%"class.std::basic_istream"* nonnull align 8 dereferenceable(16) @_ZSt3cin, i32* nonnull align 4 dereferenceable(4) %1)
  %8 = call nonnull align 8 dereferenceable(16) %"class.std::basic_istream"* @_ZNSirsERi(%"class.std::basic_istream"* nonnull align 8 dereferenceable(16) %7, i32* nonnull align 4 dereferenceable(4) %2)
  %9 = call nonnull align 8 dereferenceable(16) %"class.std::basic_istream"* @_ZNSirsERi(%"class.std::basic_istream"* nonnull align 8 dereferenceable(16) %8, i32* nonnull align 4 dereferenceable(4) %3)
  %10 = load i32, i32* %1, align 4, !tbaa !5
  %11 = and i32 %10, 3
  %12 = icmp eq i32 %11, 0
  %13 = srem i32 %10, 100
  %14 = icmp ne i32 %13, 0
  %15 = and i1 %12, %14
  %16 = srem i32 %10, 400
  %17 = icmp eq i32 %16, 0
  %18 = select i1 %15, i1 true, i1 %17
  %19 = xor i1 %18, true
  %20 = load i32, i32* %2, align 4, !tbaa !5
  %21 = load i32, i32* %3, align 4
  %22 = icmp ne i32 %20, 1
  %23 = icmp ne i32 %21, 1
  %24 = select i1 %22, i1 true, i1 %23
  br i1 %24, label %25, label %74

25:                                               ; preds = %0, %56
  %26 = phi i32 [ %30, %56 ], [ 1, %0 ]
  %27 = phi i32 [ %70, %56 ], [ 1, %0 ]
  %28 = phi i32 [ %69, %56 ], [ 1, %0 ]
  %29 = add nsw i32 %27, 1
  %30 = add nuw nsw i32 %26, 1
  switch i32 %27, label %56 [
    i32 31, label %31
    i32 30, label %34
  ]

31:                                               ; preds = %25
  %32 = add i32 %28, -1
  %33 = icmp ult i32 %32, 12
  br i1 %33, label %37, label %56

34:                                               ; preds = %25
  %35 = add i32 %28, -4
  %36 = icmp ult i32 %35, 8
  br i1 %36, label %45, label %56

37:                                               ; preds = %31
  %38 = trunc i32 %32 to i16
  %39 = lshr i16 2773, %38
  %40 = and i16 %39, 1
  %41 = icmp eq i16 %40, 0
  br i1 %41, label %56, label %42

42:                                               ; preds = %37
  %43 = sext i32 %32 to i64
  %44 = getelementptr inbounds [12 x i32], [12 x i32]* @switch.table.main, i64 0, i64 %43
  br label %53

45:                                               ; preds = %34
  %46 = trunc i32 %35 to i8
  %47 = lshr i8 -91, %46
  %48 = and i8 %47, 1
  %49 = icmp eq i8 %48, 0
  br i1 %49, label %56, label %50

50:                                               ; preds = %45
  %51 = sext i32 %35 to i64
  %52 = getelementptr inbounds [8 x i32], [8 x i32]* @switch.table.main.1, i64 0, i64 %51
  br label %53

53:                                               ; preds = %42, %50
  %54 = phi i32* [ %52, %50 ], [ %44, %42 ]
  %55 = load i32, i32* %54, align 4
  br label %56

56:                                               ; preds = %53, %45, %34, %37, %31, %25
  %57 = phi i32 [ %28, %34 ], [ %28, %31 ], [ %28, %25 ], [ %28, %37 ], [ %28, %45 ], [ %55, %53 ]
  %58 = phi i32 [ 31, %34 ], [ 32, %31 ], [ %29, %25 ], [ 32, %37 ], [ 31, %45 ], [ 1, %53 ]
  %59 = icmp eq i32 %58, 30
  %60 = icmp eq i32 %57, 2
  %61 = select i1 %59, i1 %60, i1 false
  %62 = and i1 %18, %61
  %63 = select i1 %62, i32 3, i32 %57
  %64 = select i1 %62, i32 1, i32 %58
  %65 = icmp eq i32 %64, 29
  %66 = icmp eq i32 %63, 2
  %67 = select i1 %65, i1 %66, i1 false
  %68 = and i1 %67, %19
  %69 = select i1 %68, i32 3, i32 %63
  %70 = select i1 %68, i32 1, i32 %64
  %71 = icmp ne i32 %20, %69
  %72 = icmp ne i32 %21, %70
  %73 = select i1 %71, i1 true, i1 %72
  br i1 %73, label %25, label %74, !llvm.loop !9

74:                                               ; preds = %56, %0
  %75 = phi i32 [ 1, %0 ], [ %30, %56 ]
  %76 = call nonnull align 8 dereferenceable(8) %"class.std::basic_ostream"* @_ZNSolsEi(%"class.std::basic_ostream"* nonnull align 8 dereferenceable(8) @_ZSt4cout, i32 %75)
  %77 = bitcast %"class.std::basic_ostream"* %76 to i8**
  %78 = load i8*, i8** %77, align 8, !tbaa !11
  %79 = getelementptr i8, i8* %78, i64 -24
  %80 = bitcast i8* %79 to i64*
  %81 = load i64, i64* %80, align 8
  %82 = bitcast %"class.std::basic_ostream"* %76 to i8*
  %83 = add nsw i64 %81, 240
  %84 = getelementptr inbounds i8, i8* %82, i64 %83
  %85 = bitcast i8* %84 to %"class.std::ctype"**
  %86 = load %"class.std::ctype"*, %"class.std::ctype"** %85, align 8, !tbaa !13
  %87 = icmp eq %"class.std::ctype"* %86, null
  br i1 %87, label %88, label %89

88:                                               ; preds = %74
  call void @_ZSt16__throw_bad_castv() #8
  unreachable

89:                                               ; preds = %74
  %90 = getelementptr inbounds %"class.std::ctype", %"class.std::ctype"* %86, i64 0, i32 8
  %91 = load i8, i8* %90, align 8, !tbaa !17
  %92 = icmp eq i8 %91, 0
  br i1 %92, label %96, label %93

93:                                               ; preds = %89
  %94 = getelementptr inbounds %"class.std::ctype", %"class.std::ctype"* %86, i64 0, i32 9, i64 10
  %95 = load i8, i8* %94, align 1, !tbaa !19
  br label %102

96:                                               ; preds = %89
  call void @_ZNKSt5ctypeIcE13_M_widen_initEv(%"class.std::ctype"* nonnull align 8 dereferenceable(570) %86)
  %97 = bitcast %"class.std::ctype"* %86 to i8 (%"class.std::ctype"*, i8)***
  %98 = load i8 (%"class.std::ctype"*, i8)**, i8 (%"class.std::ctype"*, i8)*** %97, align 8, !tbaa !11
  %99 = getelementptr inbounds i8 (%"class.std::ctype"*, i8)*, i8 (%"class.std::ctype"*, i8)** %98, i64 6
  %100 = load i8 (%"class.std::ctype"*, i8)*, i8 (%"class.std::ctype"*, i8)** %99, align 8
  %101 = call signext i8 %100(%"class.std::ctype"* nonnull align 8 dereferenceable(570) %86, i8 signext 10)
  br label %102

102:                                              ; preds = %93, %96
  %103 = phi i8 [ %95, %93 ], [ %101, %96 ]
  %104 = call nonnull align 8 dereferenceable(8) %"class.std::basic_ostream"* @_ZNSo3putEc(%"class.std::basic_ostream"* nonnull align 8 dereferenceable(8) %76, i8 signext %103)
  %105 = call nonnull align 8 dereferenceable(8) %"class.std::basic_ostream"* @_ZNSo5flushEv(%"class.std::basic_ostream"* nonnull align 8 dereferenceable(8) %104)
  call void @llvm.lifetime.end.p0i8(i64 4, i8* nonnull %6) #7
  call void @llvm.lifetime.end.p0i8(i64 4, i8* nonnull %5) #7
  call void @llvm.lifetime.end.p0i8(i64 4, i8* nonnull %4) #7
  ret i32 0
}

; Function Attrs: argmemonly mustprogress nofree nosync nounwind willreturn
declare void @llvm.lifetime.start.p0i8(i64 immarg, i8* nocapture) #4

declare nonnull align 8 dereferenceable(16) %"class.std::basic_istream"* @_ZNSirsERi(%"class.std::basic_istream"* nonnull align 8 dereferenceable(16), i32* nonnull align 4 dereferenceable(4)) local_unnamed_addr #0

declare nonnull align 8 dereferenceable(8) %"class.std::basic_ostream"* @_ZNSolsEi(%"class.std::basic_ostream"* nonnull align 8 dereferenceable(8), i32) local_unnamed_addr #0

; Function Attrs: argmemonly mustprogress nofree nosync nounwind willreturn
declare void @llvm.lifetime.end.p0i8(i64 immarg, i8* nocapture) #4

declare nonnull align 8 dereferenceable(8) %"class.std::basic_ostream"* @_ZNSo3putEc(%"class.std::basic_ostream"* nonnull align 8 dereferenceable(8), i8 signext) local_unnamed_addr #0

declare nonnull align 8 dereferenceable(8) %"class.std::basic_ostream"* @_ZNSo5flushEv(%"class.std::basic_ostream"* nonnull align 8 dereferenceable(8)) local_unnamed_addr #0

; Function Attrs: noreturn
declare void @_ZSt16__throw_bad_castv() local_unnamed_addr #5

declare void @_ZNKSt5ctypeIcE13_M_widen_initEv(%"class.std::ctype"* nonnull align 8 dereferenceable(570)) local_unnamed_addr #0

; Function Attrs: sspstrong uwtable
define internal void @_GLOBAL__sub_I_1061.cpp() #6 section ".text.startup" {
  tail call void @_ZNSt8ios_base4InitC1Ev(%"class.std::ios_base::Init"* nonnull align 1 dereferenceable(1) @_ZStL8__ioinit)
  %1 = tail call i32 @__cxa_atexit(void (i8*)* bitcast (void (%"class.std::ios_base::Init"*)* @_ZNSt8ios_base4InitD1Ev to void (i8*)*), i8* getelementptr inbounds (%"class.std::ios_base::Init", %"class.std::ios_base::Init"* @_ZStL8__ioinit, i64 0, i32 0), i8* nonnull @__dso_handle) #7
  ret void
}


!llvm.module.flags = !{!0, !1, !2, !3}
!llvm.ident = !{!4}

!0 = !{i32 1, !"wchar_size", i32 4}
!1 = !{i32 7, !"PIC Level", i32 2}
!2 = !{i32 7, !"PIE Level", i32 2}
!3 = !{i32 7, !"uwtable", i32 1}
!4 = !{!"clang version 13.0.0"}
!5 = !{!6, !6, i64 0}
!6 = !{!"int", !7, i64 0}
!7 = !{!"omnipotent char", !8, i64 0}
!8 = !{!"Simple C++ TBAA"}
!9 = distinct !{!9, !10}
!10 = !{!"llvm.loop.mustprogress"}
!11 = !{!12, !12, i64 0}
!12 = !{!"vtable pointer", !8, i64 0}
!13 = !{!14, !15, i64 240}
!14 = !{!"_ZTSSt9basic_iosIcSt11char_traitsIcEE", !15, i64 216, !7, i64 224, !16, i64 225, !15, i64 232, !15, i64 240, !15, i64 248, !15, i64 256}
!15 = !{!"any pointer", !7, i64 0}
!16 = !{!"bool", !7, i64 0}
!17 = !{!18, !7, i64 56}
!18 = !{!"_ZTSSt5ctypeIcE", !15, i64 16, !16, i64 24, !15, i64 32, !15, i64 40, !15, i64 48, !7, i64 56, !7, i64 57, !7, i64 313, !7, i64 569}
!19 = !{!7, !7, i64 0}
